ccopy_reg
_reconstructor
p0
(cargparse
Namespace
p1
c__builtin__
object
p2
Ntp3
Rp4
(dp5
S'n_iters'
p6
I5
sS'max_vocab'
p7
I200000
sS'verbose'
p8
I2
sS'lr_shrink'
p9
F0.5
sS'dico_threshold'
p10
I0
sS'n_epochs'
p11
I5
sS'dis_layers'
p12
I2
sS'export'
p13
I01
sS'exp_path'
p14
S'/Users/yuangyao/Documents/Research/UnsupervisedWordMapping/dumped/96s9ospxoo'
p15
sS'tgt_emb'
p16
S'data/pretrained/it.vec'
p17
sS'dis_lambda'
p18
I1
sS'map_optimizer'
p19
S'sgd,lr=0.1'
p20
sS'min_lr'
p21
F1e-06
sS'map_id_init'
p22
I01
sS'adversarial'
p23
I01
sS'dis_most_frequent'
p24
I75000
sS'epoch_size'
p25
I10000
sS'src_emb'
p26
S'data/pretrained/en.vec'
p27
sS'dis_input_dropout'
p28
F0.1
sS'dis_optimizer'
p29
g20
sS'dis_hid_dim'
p30
I2048
sS'lr_decay'
p31
F0.98
sS'normalize_embeddings'
p32
S''
p33
sS'dis_clip_weights'
p34
I0
sS'batch_size'
p35
I32
sS'dis_steps'
p36
I5
sS'map_beta'
p37
F0.001
sS'dico_min_size'
p38
I0
sS'dis_smooth'
p39
F0.1
sS'dico_max_size'
p40
I0
sS'refinement'
p41
I00
sS'dico_max_rank'
p42
I15000
sS'dico_build'
p43
S'S2T&T2S'
p44
sS'emb_dim'
p45
I300
sS'seed'
p46
I-1
sS'cuda'
p47
I00
sS'dico_method'
p48
S'csls_knn_10'
p49
sS'src_lang'
p50
S'en'
p51
sS'tgt_lang'
p52
S'it'
p53
sS'dis_dropout'
p54
F0.0
sb.